(lp0
(lp1
F0.2578754723072052
aF0.2578754723072052
aF-0.46886447072029114
aF0.35164836049079895
aF-0.41807082295417786
aF-0.2617826759815216
aF0.3203907310962677
aF-0.36336997151374817
aF-0.40634921193122864
aF0.34383395314216614
aF0.34383395314216614
aF-0.46495726704597473
aF0.22661782801151276
aF-0.3868131935596466
aF-0.3203907310962677
aF0.23443223536014557
aF-0.3789987862110138
aF0.08595848828554153
aF0.4571428596973419
aF-0.35946276783943176
aF-0.1875457912683487
aF0.1289377361536026
aF-0.4610500633716583
aF-0.05860805884003639
aF-0.41807082295417786
aF-0.46886447072029114
aF-0.07423687726259232
aF0.027350427582859993
aF-0.46495726704597473
aF-0.46495726704597473
aF0.07032967358827591
aF-0.4493284523487091
aF-0.14065934717655182
aF-0.16800977289676666
aF-0.4532356560230255
aF-0.3750915825366974
aF0.21880342066287994
aF-0.4610500633716583
aF0.09768009930849075
aF0.2735042870044708
aF-0.42197802662849426
aF-0.15628816187381744
aF0.3321123421192169
aF-0.4493284523487091
aF0.0039072041399776936
aF0.4336996376514435
aF-0.41807082295417786
aF-0.47277167439460754
aF-0.23052503168582916
aF-0.28131869435310364
aF-0.46886447072029114
aF0.21098901331424713
aF-0.34383395314216614
aF-0.46495726704597473
aF-0.07423687726259232
aF-0.16019536554813385
aF-0.46886447072029114
aF0.3242979347705841
aF-0.20317460596561432
aF-0.46495726704597473
aF0.07814408093690872
aF-0.41807082295417786
aF-0.41807082295417786
aF0.28522589802742004
aF-0.04297924414277077
aF-0.4493284523487091
aF0.35164836049079895
aF0.08595848828554153
aF-0.4415140450000763
aF0.14847375452518463
aF-0.36336997151374817
aF-0.4297924339771271
aF0.132844939827919
aF-0.40634921193122864
aF-0.4454212486743927
aF0.390720397233963
aF-0.4376068413257599
aF-0.3829059898853302
aF0.36336997151374817
aF-0.3946276009082794
aF-0.1914529949426651
aF0.1875457912683487
aF-0.41416361927986145
aF-0.46886447072029114
aF-0.03907204046845436
aF-0.46495726704597473
aF0.04297924414277077
aF0.2617826759815216
aF-0.42197802662849426
aF-0.05079365149140358
aF0.3789987862110138
aF-0.41807082295417786
aF0.20317460596561432
aF0.4336996376514435
aF-0.4336996376514435
aF-0.36336997151374817
aF0.04297924414277077
aF-0.4415140450000763
aF-0.3868131935596466
aF0.3242979347705841
aF-0.4532356560230255
aF-0.3985348045825958
aF0.35164836049079895
aF-0.40634921193122864
aF-0.34383395314216614
aF0.2735042870044708
aF-0.390720397233963
aF-0.4610500633716583
aF0.34383395314216614
aF-0.4454212486743927
aF-0.07423687726259232
aF0.40634921193122864
aF-0.3047619163990021
aF-0.3203907310962677
aF0.4297924339771271
aF-0.41807082295417786
aF-0.16410256922245026
aF0.4336996376514435
aF-0.35164836049079895
aF-0.47277167439460754
aF-0.21489621698856354
aF-0.2539682686328888
aF-0.46886447072029114
aF0.23052503168582916
aF-0.3242979347705841
aF-0.46495726704597473
aF-0.09768009930849075
aF-0.1836385875940323
aF-0.46886447072029114
aF0.3242979347705841
aF-0.20708180963993073
aF-0.46495726704597473
aF0.14847375452518463
aF-0.41807082295417786
aF-0.42197802662849426
aF0.2461538463830948
aF-0.3047619163990021
aF-0.4610500633716583
aF0.3946276009082794
aF-0.265689879655838
aF-0.390720397233963
aF0.3750915825366974
aF-0.371184378862381
aF-0.46886447072029114
aF-0.07423687726259232
aF-0.4415140450000763
aF-0.46886447072029114
aF0.35555556416511536
aF-0.42588523030281067
aF-0.20708180963993073
aF0.3360195457935333
aF-0.371184378862381
aF-0.3829059898853302
aF0.2500610649585724
aF0.2500610649585724
aF-0.42197802662849426
aF0.17973138391971588
aF-0.4571428596973419
aF-0.08595848828554153
aF-0.05079365149140358
aF-0.4415140450000763
aF-0.132844939827919
aF0.3868131935596466
aF-0.42197802662849426
aF0.390720397233963
aF0.2735042870044708
aF-0.4297924339771271
aF-0.3985348045825958
aF-0.2735042870044708
aF-0.46886447072029114
aF-0.1953601986169815
aF0.28913310170173645
aF-0.4532356560230255
aF-0.08986569195985794
aF-0.08986569195985794
aF-0.4610500633716583
aF-0.3047619163990021
aF-0.011721611954271793
aF-0.46495726704597473
aF0.11721611768007278
aF0.11721611768007278
aF-0.4610500633716583
aF0.132844939827919
aF-0.17582418024539948
aF-0.4454212486743927
aF0.04688644781708717
aF0.34774115681648254
aF-0.3750915825366974
aF0.41416361927986145
aF-0.1953601986169815
aF-0.4610500633716583
aF-0.03125763311982155
aF-0.4297924339771271
aF-0.4336996376514435
aF0.2617826759815216
aF-0.07423687726259232
aF-0.46886447072029114
aF0.3360195457935333
aF-0.3946276009082794
aF-0.46886447072029114
aF0.09377289563417435
aF-0.1953601986169815
aF-0.4610500633716583
aF0.35946276783943176
aF-0.2461538463830948
aF-0.46495726704597473
aF0.30085471272468567
aF-0.3203907310962677
aF-0.4610500633716583
aF0.12112332135438919
aF0.1992674022912979
aF-0.4376068413257599
aF0.41807082295417786
aF0.23443223536014557
aF-0.4336996376514435
aF-0.47277167439460754
aF0.0039072041399776936
aF-0.46495726704597473
aF-0.4493284523487091
aF0.3047619163990021
aF-0.390720397233963
aF-0.3868131935596466
aF-0.3868131935596466
aF-0.40634921193122864
aF-0.4415140450000763
aF0.35164836049079895
aF-0.4415140450000763
aF-0.46886447072029114
aF0.1367521435022354
aF-0.4415140450000763
aF-0.34383395314216614
aF0.28131869435310364
aF-0.3868131935596466
aF-0.3946276009082794
aF0.4336996376514435
aF-0.3203907310962677
aF-0.10549450665712357
aF0.1250305324792862
aF-0.4415140450000763
aF-0.4415140450000763
aF-0.2539682686328888
aF-0.4610500633716583
aF-0.4454212486743927
aF0.35946276783943176
aF-0.4376068413257599
aF-0.16410256922245026
aF0.35164836049079895
aF-0.3672771751880646
aF-0.42588523030281067
aF0.34383395314216614
aF0.34383395314216614
aF-0.40634921193122864
aF0.34774115681648254
aF-0.4336996376514435
aF-0.12112332135438919
aF0.20708180963993073
aF-0.41416361927986145
aF-0.35946276783943176
aF0.4297924339771271
aF-0.41025641560554504
aF0.2617826759815216
aF0.4454212486743927
aF-0.29694750905036926
aF-0.47277167439460754
aF-0.15238095819950104
aF-0.2461538463830948
aF-0.46495726704597473
aF-0.14847375452518463
aF-0.1250305324792862
aF-0.46886447072029114
aF-0.46886447072029114
aF-0.1953601986169815
aF-0.4610500633716583
aF0.132844939827919
aF-0.3242979347705841
aF-0.46495726704597473
aF-0.16019536554813385
aF0.17973138391971588
aF-0.42197802662849426
aF0.41807082295417786
aF0.015628816559910774
aF-0.4415140450000763
aF0.3868131935596466
aF0.390720397233963
aF-0.10549450665712357
aF0.3868131935596466
aF-0.29694750905036926
aF-0.46886447072029114
aF-0.03907204046845436
aF-0.46886447072029114
aF-0.4297924339771271
aF0.3360195457935333
aF-0.3985348045825958
aF-0.3360195457935333
aF0.30085471272468567
aF-0.3829059898853302
aF-0.46495726704597473
aF0.3672771751880646
aF-0.40244200825691223
aF-0.2617826759815216
aF0.35555556416511536
aF-0.3282051384449005
aF-0.42197802662849426
aF0.3829059898853302
aF-0.28913310170173645
aF-0.4610500633716583
aF0.390720397233963
aF-0.23052503168582916
aF-0.054700855165719986
aF0.42588523030281067
aF0.0625152662396431
aF-0.46495726704597473
aF-0.4376068413257599
aF-0.2578754723072052
aF-0.4610500633716583
aF-0.4415140450000763
aF0.3360195457935333
aF-0.4454212486743927
aF-0.4454212486743927
aF0.20708180963993073
aF-0.4297924339771271
aF-0.3047619163990021
aF0.1250305324792862
aF-0.42588523030281067
aF-0.46495726704597473
aF0.21098901331424713
aF-0.4532356560230255
aF0.0625152662396431
aF0.1953601986169815
aF-0.3985348045825958
aF0.2500610649585724
aF0.46495726704597473
aF-0.28913310170173645
aF0.1953601986169815
aF0.11721611768007278
aF-0.46495726704597473
aF-0.11721611768007278
aF-0.2735042870044708
aF-0.46495726704597473
aF-0.12112332135438919
aF-0.15238095819950104
aF-0.46886447072029114
aF-0.46886447072029114
aF-0.2500610649585724
aF-0.46495726704597473
aF0.21098901331424713
aF-0.3672771751880646
aF-0.09377289563417435
aF-0.09377289563417435
aF-0.33992674946784973
aF-0.46495726704597473
aF0.3672771751880646
aF-0.1953601986169815
aF-0.4493284523487091
aF0.3985348045825958
aF-0.015628816559910774
aF0.21489621698856354
aF0.21489621698856354
aF-0.42197802662849426
aF-0.47277167439460754
aF0.011721611954271793
aF-0.4610500633716583
aF-0.46495726704597473
aF0.2617826759815216
aF-0.3829059898853302
aF-0.36336997151374817
aF0.21489621698856354
aF0.21489621698856354
aF-0.2695970833301544
aF0.29304030537605286
aF-0.4493284523487091
aF-0.29304030537605286
aF0.16800977289676666
aF-0.4297924339771271
aF-0.34383395314216614
aF0.1914529949426651
aF-0.4532356560230255
aF0.10940171033143997
aF0.4493284523487091
aF-0.36336997151374817
aF0.16019536554813385
aF0.16019536554813385
aF-0.40634921193122864
aF-0.3985348045825958
aF0.07423687726259232
aF-0.46495726704597473
aF-0.23052503168582916
aF0.40634921193122864
aF-0.41416361927986145
aF-0.16800977289676666
aF0.2500610649585724
aF-0.40244200825691223
aF-0.41025641560554504
aF0.41416361927986145
aF-0.41807082295417786
aF-0.08595848828554153
aF0.3868131935596466
aF-0.35555556416511536
aF-0.3203907310962677
aF0.3829059898853302
aF-0.3321123421192169
aF-0.4454212486743927
aF0.41025641560554504
aF-0.3282051384449005
aF-0.015628816559910774
aF0.4297924339771271
aF-0.11330891400575638
aF-0.46886447072029114
aF-0.1914529949426651
aF-0.40244200825691223
aF-0.46886447072029114
aF-0.22271062433719635
aF0.054700855165719986
aF-0.46495726704597473
aF-0.46495726704597473
aF0.011721611954271793
aF-0.4532356560230255
aF0.01953602023422718
aF-0.21880342066287994
aF-0.28131869435310364
aF-0.28131869435310364
aF-0.1836385875940323
aF-0.46886447072029114
aF0.35164836049079895
aF0.08986569195985794
aF-0.4454212486743927
aF0.1836385875940323
aF0.15628816187381744
aF-0.27741149067878723
aF-0.27741149067878723
aF-0.29694750905036926
aF-0.46495726704597473
aF0.1250305324792862
aF-0.4454212486743927
aF-0.46886447072029114
aF0.22271062433719635
aF-0.2617826759815216
aF-0.390720397233963
aF0.36336997151374817
aF0.36336997151374817
aF-0.3829059898853302
aF0.34774115681648254
aF-0.42197802662849426
aF-0.3164835274219513
aF-0.1367521435022354
aF-0.4493284523487091
aF-0.41807082295417786
aF0.29304030537605286
aF-0.4532356560230255
aF-0.23833943903446198
aF0.41416361927986145
aF-0.35946276783943176
aF0.17191697657108307
aF0.1836385875940323
aF0.1836385875940323
aF-0.4415140450000763
aF0.027350427582859993
aF-0.46495726704597473
aF-0.15238095819950104
aF0.3360195457935333
aF-0.390720397233963
aF-0.4297924339771271
aF0.2500610649585724
aF-0.4571428596973419
aF-0.4297924339771271
aF0.3203907310962677
aF-0.40634921193122864
aF-0.3360195457935333
aF0.10549450665712357
aF-0.42588523030281067
aF-0.4493284523487091
aF0.36336997151374817
aF-0.4376068413257599
aF-0.4610500633716583
aF0.2617826759815216
aF-0.35164836049079895
aF-0.30085471272468567
aF0.3829059898853302
aF-0.3321123421192169
aF-0.46886447072029114
aF-0.1992674022912979
aF-0.41025641560554504
aF-0.41025641560554504
aF0.15628816187381744
aF0.05860805884003639
aF-0.46495726704597473
aF0.20708180963993073
aF-0.15238095819950104
aF-0.4610500633716583
aF0.035164836794137955
aF-0.2539682686328888
aF-0.46886447072029114
aF-0.15238095819950104
aF-0.3047619163990021
aF-0.47277167439460754
aF0.265689879655838
aF-0.34383395314216614
aF-0.46495726704597473
aF0.05079365149140358
aF0.21880342066287994
aF-0.36336997151374817
aF-0.36336997151374817
aF-0.21880342066287994
aF-0.46495726704597473
aF-0.035164836794137955
aF-0.4297924339771271
aF-0.46886447072029114
aF-0.054700855165719986
aF-0.17191697657108307
aF-0.46495726704597473
aF0.3360195457935333
aF0.3360195457935333
aF-0.4610500633716583
aF0.2695970833301544
aF-0.371184378862381
aF-0.4532356560230255
aF0.05860805884003639
aF-0.4297924339771271
aF-0.4610500633716583
aF0.34774115681648254
aF-0.4336996376514435
aF-0.33992674946784973
aF0.390720397233963
aF-0.16019536554813385
aF0.054700855165719986
aF0.4336996376514435
aF0.4336996376514435
aF-0.46495726704597473
aF0.14065934717655182
aF-0.4454212486743927
aF-0.3086691200733185
aF0.35555556416511536
aF-0.2578754723072052
aF-0.4297924339771271
aF0.34383395314216614
aF-0.4454212486743927
aF-0.41025641560554504
aF0.33992674946784973
aF-0.41025641560554504
aF-0.4415140450000763
aF0.14456655085086823
aF-0.41807082295417786
aF-0.2695970833301544
aF0.4493284523487091
aF-0.3321123421192169
aF0.40244200825691223
aF0.46495726704597473
aF-0.09377289563417435
aF0.0625152662396431
aF0.03125763311982155
aF0.03125763311982155
aF-0.23833943903446198
aF-0.16410256922245026
aF-0.46886447072029114
aF0.1992674022912979
aF0.24224664270877838
aF-0.4336996376514435
aF-0.16800977289676666
aF0.10940171033143997
aF-0.46495726704597473
aF-0.23052503168582916
aF0.371184378862381
aF-0.4376068413257599
aF-0.07814408093690872
aF-0.08595848828554153
aF-0.4454212486743927
aF-0.29304030537605286
aF0.29694750905036926
aF-0.4532356560230255
aF-0.24224664270877838
aF0.41416361927986145
aF-0.35946276783943176
aF-0.015628816559910774
aF0.371184378862381
aF-0.35555556416511536
aF-0.46886447072029114
aF-0.2695970833301544
aF-0.3946276009082794
aF-0.3946276009082794
aF0.015628816559910774
aF0.11330891400575638
aF-0.46495726704597473
aF0.1875457912683487
aF0.0664224699139595
aF-0.4493284523487091
aF0.05860805884003639
aF-0.17582418024539948
aF-0.46886447072029114
aF-0.05860805884003639
aF-0.08595848828554153
aF-0.46886447072029114
aF0.05079365149140358
aF-0.41807082295417786
aF-0.46495726704597473
aF0.23052503168582916
aF0.35164836049079895
aF-0.2617826759815216
aF-0.2617826759815216
aF-0.132844939827919
aF-0.4610500633716583
aF0.11721611768007278
aF-0.42588523030281067
aF-0.46886447072029114
aF0.07423687726259232
aF-0.21880342066287994
aF-0.46495726704597473
aF0.36336997151374817
aF0.36336997151374817
aF-0.46495726704597473
aF0.21880342066287994
aF-0.2735042870044708
aF-0.4454212486743927
aF0.3086691200733185
aF-0.3672771751880646
aF-0.46495726704597473
aF0.35946276783943176
aF-0.3829059898853302
aF-0.4571428596973419
aF0.2735042870044708
aF-0.027350427582859993
aF-0.36336997151374817
aF0.4376068413257599
aF0.0
aF-0.4532356560230255
aF-0.46495726704597473
aF-0.17973138391971588
aF-0.17973138391971588
aF-0.34383395314216614
aF0.3360195457935333
aF-0.4454212486743927
aF-0.12112332135438919
aF-0.132844939827919
aF-0.4493284523487091
aF-0.35946276783943176
aF0.11721611768007278
aF-0.46495726704597473
aF0.15238095819950104
aF-0.09768009930849075
aF-0.4571428596973419
aF0.05079365149140358
aF-0.04688644781708717
aF-0.29694750905036926
aF0.23833943903446198
aF0.4610500633716583
aF-0.3360195457935333
aF0.17191697657108307
aF0.17191697657108307
aF-0.46886447072029114
aF-0.04688644781708717
aF-0.42588523030281067
aF-0.4454212486743927
aF0.23833943903446198
aF-0.023443223908543587
aF-0.46495726704597473
aF0.3360195457935333
aF-0.41025641560554504
aF-0.46495726704597473
aF0.23833943903446198
aF-0.3047619163990021
aF-0.46495726704597473
aF0.1836385875940323
aF-0.3985348045825958
aF-0.46886447072029114
aF0.3125763237476349
aF-0.42197802662849426
aF-0.35164836049079895
aF0.3868131935596466
aF0.03907204046845436
aF-0.1367521435022354
aF0.42588523030281067
aF-0.28522589802742004
aF-0.46495726704597473
aF-0.1250305324792862
aF-0.42588523030281067
aF-0.42588523030281067
aF0.1953601986169815
aF-0.027350427582859993
aF-0.46495726704597473
aF0.265689879655838
aF-0.027350427582859993
aF-0.4532356560230255
aF-0.09377289563417435
aF-0.16800977289676666
aF-0.46886447072029114
aF-0.46886447072029114
aF-0.265689879655838
aF-0.46495726704597473
aF0.3047619163990021
aF-0.28913310170173645
aF-0.4610500633716583
aF0.09768009930849075
aF0.21880342066287994
aF-0.4376068413257599
aF0.40634921193122864
aF0.16800977289676666
aF-0.4415140450000763
aF-0.4571428596973419
aF-0.23052503168582916
aF-0.4571428596973419
aF-0.4532356560230255
aF0.35555556416511536
aF-0.4454212486743927
aF-0.027350427582859993
aF-0.1289377361536026
aF-0.4493284523487091
aF-0.2578754723072052
aF0.14847375452518463
aF-0.4610500633716583
aF-0.4610500633716583
aF-0.10940171033143997
aF-0.4571428596973419
aF-0.05860805884003639
aF-0.08595848828554153
aF-0.4454212486743927
aF-0.16410256922245026
aF0.40634921193122864
aF-0.4336996376514435
aF0.3829059898853302
aF0.08205128461122513
aF-0.4493284523487091
aF-0.3985348045825958
aF-0.3203907310962677
aF-0.47277167439460754
aF-0.16410256922245026
aF0.265689879655838
aF-0.4571428596973419
aF0.1250305324792862
aF-0.29694750905036926
aF-0.4610500633716583
aF-0.10940171033143997
aF-0.08986569195985794
aF-0.46886447072029114
aF0.29694750905036926
aF-0.17191697657108307
aF-0.4610500633716583
aF0.2500610649585724
aF-0.23833943903446198
aF0.21880342066287994
aF0.4532356560230255
aF0.35946276783943176
aF-0.2695970833301544
aF0.3868131935596466
aF-0.4415140450000763
aF-0.46886447072029114
aF0.05860805884003639
aF-0.4532356560230255
aF-0.29304030537605286
aF0.3282051384449005
aF0.3282051384449005
aF-0.17973138391971588
aa.