(lp0
(lp1
F0.0
aF0.0
aF0.0
aF0.0
aF0.0
aF0.0
aF0.0
aF0.0
aF0.0
aF0.0
aF0.0
aF0.0
aF0.0
aF0.0
aF0.0
aF0.0
aF0.0
aF0.0
aF0.0
aF0.0
aF0.0
aF0.0
aF0.0
aF0.0
aF0.0
aF0.0
aF0.0
aF0.0
aF0.0
aF0.0
aF0.0
aF0.0
aF0.0
aF0.0
aF0.0
aF0.0
aF0.0
aF0.0
aF0.0
aF0.0
aF0.0
aF0.0
aF0.0
aF0.0
aF0.0
aF0.0
aF0.0
aF0.0
aF0.0
aF0.0
aF0.0
aF0.0
aF0.0
aF0.0
aF0.0
aF0.0
aF0.0
aF0.0
aF0.0
aF0.0
aF0.0
aF0.0
aF0.0
aF0.0
aF0.0
aF0.0
aF0.0
aF0.0
aF0.0
aF0.0
aF0.0
aF0.0
aF0.0
aF0.0
aF0.0
aF0.0
aF0.0
aF0.0
aF0.0
aF0.0
aF0.0
aF0.0
aF0.0
aF0.0
aF0.0
aF0.0
aF0.0
aF0.0
aF0.0
aF0.0
aF0.0
aF0.0
aF0.0
aF0.0
aF0.0
aF0.0
aF0.0
aF0.0
aF0.0
aF0.0
aF0.0
aF0.0
aF0.0
aF0.0
aF0.0
aF0.0
aF0.0
aF0.0
aF0.0
aF0.0
aF0.0
aF0.0
aF0.0
aF0.0
aF0.0
aF0.0
aF0.0
aF0.0
aF0.0
aF0.0
aF0.0
aF0.0
aF0.0
aF0.0
aF0.0
aF0.0
aF0.0
aF0.0
aF0.0
aF0.0
aF0.0
aF0.0
aF0.0
aF0.0
aF0.0
aF0.0
aF0.0
aF0.0
aF0.0
aF0.0
aF0.0
aF0.0
aF0.0
aF0.0
aF0.0
aF0.0
aF0.0
aF0.0
aF0.0
aF0.0
aF0.0
aF0.0
aF0.0
aF0.0
aF0.0
aF0.0
aF0.0
aF0.0
aF0.0
aF0.0
aF0.0
aF0.0
aF0.0
aF0.0
aF0.0
aF0.0
aF0.0
aF0.0
aF0.0
aF0.0
aF0.0
aF0.0
aF0.0
aF0.0
aF0.0
aF0.0
aF0.0
aF0.0
aF0.0
aF0.0
aF0.0
aF0.0
aF0.0
aF0.0
aF0.0
aF0.0
aF0.0
aF0.0
aF0.0
aF0.0
aF0.0
aF0.0
aF0.0
aF0.0
aF0.0
aF0.0
aF0.0
aF0.0
aF0.0
aF0.0
aF0.00024425992160104215
aF0.00014163533342070878
aF0.00023525083088316023
aF2.0206074623274617e-05
aF0.000143644938361831
aF6.563973147422075e-05
aF0.0003780657716561109
aF0.00025501649361103773
aF0.0008497388334944844
aF0.0003429880307521671
aF0.00030730728758499026
aF0.0009346060105599463
aF0.0009346059523522854
aF0.002507241442799568
aF0.0012232306180521846
aF0.0014673597179353237
aF0.0007487070397473872
aF0.0007358139264397323
aF0.0021374060306698084
aF0.0012529757805168629
aF0.0012529754312708974
aF0.001544010709039867
aF0.0002617670688778162
aF0.0013411757536232471
aF0.0005471447948366404
aF0.0006800445844419301
aF0.0008357991464436054
aF0.001464785891585052
aF0.0007405428332276642
aF0.002175241941586137
aF0.0012376047670841217
aF0.0008184228790923953
aF0.0018895030952990055
aF0.0010155440540984273
aF0.001167980837635696
aF0.0015284118708223104
aF0.0007692444487474859
aF0.002398889511823654
aF0.0020402066875249147
aF0.002040206454694271
aF0.0036351997405290604
aF0.0025215367786586285
aF0.00555344158783555
aF0.004802017472684383
aF0.005943173076957464
aF0.005943173076957464
aF0.005907878279685974
aF0.00645763985812664
aF0.0057710763067007065
aF0.005771075841039419
aF0.0031736348755657673
aF0.0035909819416701794
aF0.0019775903783738613
aF0.0051482063718140125
aF0.004144943784922361
aF0.007753400132060051
aF0.010094072669744492
aF0.009601982310414314
aF0.010270616970956326
aF0.009809255599975586
aF0.009386517107486725
aF0.010387863963842392
aF0.008877419866621494
aF0.01079210452735424
aF0.007938493974506855
aF0.008647013455629349
aF0.006637862417846918
aF0.009158747270703316
aF0.009766788221895695
aF0.010264637880027294
aF0.010617737658321857
aF0.010617737658321857
aF0.010617735795676708
aF0.010381554253399372
aF0.010381554253399372
aF0.009820332750678062
aF0.009820331819355488
aF0.013058146461844444
aF0.011334669776260853
aF0.016643084585666656
aF0.013379961252212524
aF0.01601860485970974
aF0.013806200586259365
aF0.014134303666651249
aF0.0141343018040061
aF0.014134300872683525
aF0.01274026371538639
aF0.015412826091051102
aF0.014557071961462498
aF0.020644010975956917
aF0.022941211238503456
aF0.022941209375858307
aF0.021069340407848358
aF0.02038908563554287
aF0.020389080047607422
aF0.020389078184962273
aF0.020575804635882378
aF0.019670963287353516
aF0.02035766839981079
aF0.021276788786053658
aF0.02236451767385006
aF0.021214226260781288
aF0.016987543553113937
aF0.01523868553340435
aF0.012712749652564526
aF0.014457941986620426
aF0.014745097607374191
aF0.015217414125800133
aF0.015217413194477558
aF0.015924271196126938
aF0.016547398641705513
aF0.018246540799736977
aF0.016304071992635727
aF0.016304071992635727
aF0.014404903165996075
aF0.0144049022346735
aF0.013067249208688736
aF0.012629596516489983
aF0.012277401983737946
aF0.012375082820653915
aF0.01272449642419815
aF0.01217813789844513
aF0.010245212353765965
aF0.008880682289600372
aF0.006250320468097925
aF0.005075788125395775
aF0.005628292448818684
aF0.004669515881687403
aF0.005042508244514465
aF0.0045611015520989895
aF0.004775042179971933
aF0.004786652512848377
aF0.004617542959749699
aF0.004298372194170952
aF0.004059568978846073
aF0.005192890297621489
aF0.0047023706138134
aF0.0052410513162612915
aF0.00582102918997407
aF0.005270547233521938
aF0.006810455583035946
aF0.006369966082274914
aF0.007779424078762531
aF0.0073304008692502975
aF0.007527819834649563
aF0.008244150318205357
aF0.008244150318205357
aF0.009364888072013855
aF0.008038660511374474
aF0.005525750573724508
aF0.004426294006407261
aF0.003947428427636623
aF0.004819079767912626
aF0.006089864298701286
aF0.007281537167727947
aF0.006526494864374399
aF0.006526494864374399
aF0.007033265195786953
aF0.007033265195786953
aF0.008089602924883366
aF0.006849298719316721
aF0.008187467232346535
aF0.005058620125055313
aF0.004565404728055
aF0.004177918657660484
aF0.004177918191999197
aF0.00417791772633791
aF0.00417791772633791
aF0.00407878402620554
aF0.0035878277849406004
aF0.003184741362929344
aF0.002928765956312418
aF0.002928765956312418
aF0.0037562234792858362
aF0.004247056785970926
aF0.004765653051435947
aF0.004765653051435947
aF0.004765653051435947
aF0.00476565258577466
aF0.004586010240018368
aF0.004573985002934933
aF0.004917370155453682
aF0.005634884350001812
aF0.004301127512007952
aF0.0034241557586938143
aF0.0018774372292682528
aF0.0018774372292682528
aF0.0018774369964376092
aF0.0025278651155531406
aF0.0028429757803678513
aF0.003110840916633606
aF0.0029393478762358427
aF0.0030025627929717302
aF0.003002563025802374
aF0.0026689099613577127
aF0.0024762735702097416
aF0.0022101346403360367
aF0.002034285105764866
aF0.0025692570488899946
aF0.0025692570488899946
aF0.0038734155241400003
aF0.0038734152913093567
aF0.004341483116149902
aF0.004341482650488615
aF0.004028849769383669
aF0.0042274766601622105
aF0.0043288408778607845
aF0.004426307510584593
aF0.004652287345379591
aF0.006324576213955879
aF0.0063245766796171665
aF0.00761230057105422
aF0.006319060921669006
aF0.005760371685028076
aF0.005313130095601082
aF0.00473417155444622
aF0.004876324441283941
aF0.004876323975622654
aF0.004876323975622654
aF0.0051532527431845665
aF0.006028560921549797
aF0.007195087615400553
aF0.00719508808106184
aF0.007195087615400553
aF0.0071950871497392654
aF0.007195086218416691
aF0.006467972416430712
aF0.006467971485108137
aF0.006491341628134251
aF0.006711430381983519
aF0.006711429916322231
aF0.006711428984999657
aF0.006137445569038391
aF0.005548031534999609
aF0.006142492406070232
aF0.006142491474747658
aF0.006142491474747658
aF0.006142491474747658
aF0.005908282473683357
aF0.005988804157823324
aF0.005988803692162037
aF0.005471125710755587
aF0.0049928887747228146
aF0.004384201020002365
aF0.004384201020002365
aF0.0035296091809868813
aF0.003990829922258854
aF0.003990829456597567
aF0.003990829922258854
aF0.003579714335501194
aF0.0032778512686491013
aF0.0032778510358184576
aF0.003367386292666197
aF0.003400319255888462
aF0.0034885972272604704
aF0.003286436665803194
aF0.0042840600945055485
aF0.003844223218038678
aF0.004330289550125599
aF0.003831736510619521
aF0.0029704757034778595
aF0.0026376619935035706
aF0.002637662226334214
aF0.002637662226334214
aF0.002637662226334214
aF0.0027105864137411118
aF0.002536989748477936
aF0.0023053039330989122
aF0.0017884555272758007
aF0.002414498943835497
aF0.002414498943835497
aF0.002414498943835497
aF0.0027930596843361855
aF0.0027930589858442545
aF0.002793058753013611
aF0.0026204572059214115
aF0.002569889184087515
aF0.0026936782523989677
aF0.0029426803812384605
aF0.0032996097579598427
aF0.002890063216909766
aF0.002486863872036338
aF0.002118001226335764
aF0.002118001226335764
aF0.002118001226335764
aF0.0019318163394927979
aF0.0019318161066621542
aF0.0019497001776471734
aF0.0018432632787153125
aF0.0020308634266257286
aF0.0026339429896324873
aF0.003028488252311945
aF0.00261412444524467
aF0.005504608154296875
aF0.016903823241591454
aF0.009492499753832817
aF0.017863478511571884
aF0.038820695132017136
aF0.012340908870100975
aF0.0017213188111782074
aF0.053125444799661636
aF0.0017698868177831173
aF0.05408474802970886
aF0.11459019780158997
aF0.1923556625843048
aF0.3150189518928528
aF0.2640286386013031
aF0.22050733864307404
aF0.24768638610839844
aF0.29467225074768066
aF0.29109033942222595
aF0.2992114722728729
aF0.250138521194458
aF0.3971167802810669
aF0.6394946575164795
aF1.0012937784194946
aF1.313277244567871
aF1.8431241512298584
aF2.1170904636383057
aF2.3614301681518555
aF2.5495216846466064
aF2.52547287940979
aF2.738927125930786
aF3.096285820007324
aF3.459683656692505
aF3.7137093544006348
aF3.476823568344116
aF4.3515214920043945
aF5.345507621765137
aF6.257377624511719
aF7.153461456298828
aF7.487186908721924
aF7.42054557800293
aF7.42354679107666
aF7.447847366333008
aF7.447846412658691
aF8.283029556274414
aF9.493024826049805
aF10.671921730041504
aF11.788804054260254
aF12.729218482971191
aF13.346181869506836
aF13.418959617614746
aF13.539113998413086
aF13.622087478637695
aF13.594888687133789
aF13.784608840942383
aF14.366133689880371
aF15.173554420471191
aF16.034015655517578
aF17.012983322143555
aF17.818187713623047
aF17.757993698120117
aF17.809085845947266
aF17.847646713256836
aF17.92993927001953
aF17.888530731201172
aF17.977672576904297
aF18.183101654052734
aF18.473718643188477
aF18.84382438659668
aF19.432140350341797
aF19.743253707885742
aF20.014455795288086
aF20.35445785522461
aF20.63846206665039
aF20.507835388183594
aF20.408966064453125
aF20.405405044555664
aF20.459775924682617
aF20.336257934570312
aF20.536535263061523
aF20.814910888671875
aF21.092348098754883
aF21.488910675048828
aF21.838417053222656
aF21.932323455810547
aF21.856477737426758
aF21.76955795288086
aF21.752965927124023
aF21.75296401977539
aF21.82904624938965
aF21.88825225830078
aF21.969764709472656
aF22.100706100463867
aF22.1727294921875
aF22.35674476623535
aF22.4619083404541
aF22.492719650268555
aF22.541549682617188
aF22.508995056152344
aF22.502025604248047
aF22.504840850830078
aF22.517240524291992
aF22.51723861694336
aF22.545595169067383
aF22.680370330810547
aF22.753782272338867
aF22.753782272338867
aF22.68402862548828
aF22.896331787109375
aF23.27954864501953
aF23.138553619384766
aF22.930753707885742
aF23.003345489501953
aF22.68297576904297
aF21.906654357910156
aF20.56926918029785
aF22.080188751220703
aF20.096235275268555
aF19.064538955688477
aF18.09280776977539
aF17.257740020751953
aF17.61381721496582
aF18.141576766967773
aF18.343347549438477
aF18.321399688720703
aF18.332103729248047
aF18.184059143066406
aF18.715879440307617
aF17.60797119140625
aF16.068641662597656
aF14.394960403442383
aF13.055607795715332
aF11.257572174072266
aF10.652135848999023
aF10.235183715820312
aF10.254281044006348
aF10.079850196838379
aF9.361642837524414
aF8.692936897277832
aF8.101566314697266
aF7.772948265075684
aF8.101277351379395
aF6.95977258682251
aF5.809237003326416
aF4.949297904968262
aF4.465112209320068
aF4.424476146697998
aF4.390137672424316
aF4.360954284667969
aF4.350164890289307
aF4.350164890289307
aF3.6008787155151367
aF2.834709644317627
aF2.2124195098876953
aF1.790618896484375
aF1.5019404888153076
aF1.4119356870651245
aF1.4072778224945068
aF1.4324640035629272
aF1.5056264400482178
aF1.625895619392395
aF1.4469612836837769
aF1.146613359451294
aF0.8945048451423645
aF0.6686170101165771
aF0.5147584676742554
aF0.4325457513332367
aF0.4224145710468292
aF0.422617644071579
aF0.42416930198669434
aF0.44736409187316895
aF0.3867841362953186
aF0.3336179852485657
aF0.2796022891998291
aF0.22476868331432343
aF0.19356131553649902
aF0.1328372359275818
aF0.1138317883014679
aF0.10976994037628174
aF0.11264719814062119
aF0.12234705686569214
aF0.11142884194850922
aF0.09497815370559692
aF0.08207685500383377
aF0.07345326989889145
aF0.08892586082220078
aF0.06687594950199127
aF0.05287572741508484
aF0.04631608724594116
aF0.04594595357775688
aF0.05158684402704239
aF0.05158683657646179
aF0.04596048593521118
aF0.041419386863708496
aF0.03391708433628082
aF0.031120434403419495
aF0.024017319083213806
aF0.019810335710644722
aF0.018807144835591316
aF0.018619107082486153
aF0.018742412328720093
aF0.020112279802560806
aF0.02332843840122223
aF0.02439354546368122
aF0.028104448691010475
aF0.028104444965720177
aF0.028104446828365326
aF0.028104443103075027
aF0.02988961525261402
aF0.031217558309435844
aF0.03159155324101448
aF0.031725719571113586
aF0.03378603979945183
aF0.03290151059627533
aF0.03522559255361557
aF0.038034964352846146
aF0.04113458842039108
aF0.047606125473976135
aF0.04458097368478775
aF0.04712443798780441
aF0.0461665615439415
aF0.044222891330718994
aF0.044222891330718994
aF0.04155750572681427
aF0.04477536678314209
aF0.04477536305785179
aF0.043418340384960175
aF0.062162939459085464
aF0.05645616352558136
aF0.04302937164902687
aF0.04731794446706772
aF0.03592566028237343
aF0.03592566028237343
aF0.03768235445022583
aF0.03960510343313217
aF0.037555426359176636
aF0.033903367817401886
aF0.039911143481731415
aF0.03845866397023201
aF0.03694768622517586
aF0.041524626314640045
aF0.03337618708610535
aF0.03234103322029114
aF0.03308827430009842
aF0.031356338411569595
aF0.03160495311021805
aF0.03160494938492775
aF0.03332570940256119
aF0.03218999132514
aF0.034854404628276825
aF0.033418189734220505
aF0.02550780586898327
aF0.022272247821092606
aF0.02314288169145584
aF0.021907730028033257
aF0.02092648856341839
aF0.02187538892030716
aF0.020360887050628662
aF0.019667644053697586
aF0.019667642191052437
aF0.015833375975489616
aF0.013951914384961128
aF0.010521558113396168
aF0.012073513120412827
aF0.012790342792868614
aF0.010725061409175396
aF0.011005029082298279
aF0.01088668778538704
aF0.010682874359190464
aF0.01068287342786789
aF0.012496757321059704
aF0.00962038990110159
aF0.010373493656516075
aF0.008842757903039455
aF0.0032770545221865177
aF0.003277054289355874
aF0.0038418155163526535
aF0.00336273992434144
aF0.0035885374527424574
aF0.0038524488918483257
aF0.004403294064104557
aF0.00482324231415987
aF0.007086656056344509
aF0.0032342257909476757
aF0.0017362041398882866
aF0.002030999166890979
aF0.002030999166890979
aF0.0027190721593797207
aF0.002719071926549077
aF0.002607995178550482
aF0.00282883457839489
aF0.003680769819766283
aF0.004103326238691807
aF0.003192386357113719
aF0.0027661544736474752
aF0.0023834838066250086
aF0.003938984591513872
aF0.0047667501494288445
aF0.00640738382935524
aF0.006770078092813492
aF0.006556357257068157
aF0.0067976852878928185
aF0.006772445049136877
aF0.00677244458347559
aF0.006479040253907442
aF0.006479039788246155
aF0.00758942449465394
aF0.008260701783001423
aF0.009742224588990211
aF0.00901393499225378
aF0.009013934060931206
aF0.009013933129608631
aF0.008674761280417442
aF0.008832458406686783
aF0.008832458406686783
aF0.009314579889178276
aF0.009775775484740734
aF0.01176951639354229
aF0.01176951639354229
aF0.010137069970369339
aF0.010921554639935493
aF0.009524974972009659
aF0.008991887792944908
aF0.008330139331519604
aF0.008090561255812645
aF0.007548664230853319
aF0.008025857619941235
aF0.008025857619941235
aF0.006488405633717775
aF0.007671087980270386
aF0.011427473276853561
aF0.007666495628654957
aF0.007666495628654957
aF0.0062141697853803635
aF0.00521824648603797
aF0.00548274302855134
aF0.005508399102836847
aF0.005351065192371607
aF0.004902762360870838
aF0.004677668679505587
aF0.005400585941970348
aF0.005400586407631636
aF0.005400586407631636
aF0.00598991708829999
aF0.005989916622638702
aF0.004537737462669611
aF0.0036344598047435284
aF0.003342789364978671
aF0.003539046738296747
aF0.004081851337105036
aF0.0037018144503235817
aF0.001924689393490553
aF0.0013429431710392237
aF0.0013429430546239018
aF0.0008340668864548206
aF0.0008340668864548206
aF0.0010284417076036334
aF0.0010284415911883116
aF0.0011555145028978586
aF0.001249601598829031
aF0.0012320587411522865
aF0.0012320586247369647
aF0.0014039871748536825
aF0.0011797512415796518
aF0.0017322375206276774
aF0.0020718430168926716
aF0.0024359694216400385
aF0.002799338661134243
aF0.0031367256306111813
aF0.0034247084986418486
aF0.003079131944105029
aF0.003125531133264303
aF0.0033129125367850065
aF0.003628667676821351
aF0.0032369906548410654
aF0.0036773988977074623
aF0.0036773988977074623
aF0.003233568277209997
aF0.003233568277209997
aF0.003559716045856476
aF0.003559716045856476
aF0.0038902561645954847
aF0.003977952990680933
aF0.003977952525019646
aF0.003839101642370224
aF0.004095934331417084
aF0.0034124967642128468
aF0.002698329044505954
aF0.002335403813049197
aF0.0027247758116573095
aF0.00407433370128274
aF0.005603244993835688
aF0.0066407956182956696
aF0.007594064809381962
aF0.006913383491337299
aF0.0066746738739311695
aF0.0068945083767175674
aF0.007210799492895603
aF0.00675588846206665
aF0.006224470678716898
aF0.006224470678716898
aF0.005623991601169109
aF0.006212230771780014
aF0.006212230771780014
aF0.006212231237441301
aF0.005601326934993267
aF0.00540128443390131
aF0.005625987891107798
aF0.006259839050471783
aF0.006259839050471783
aF0.005717186257243156
aF0.0051537868566811085
aF0.004608750808984041
aF0.005128119140863419
aF0.005128119140863419
aF0.004765024408698082
aF0.004552220460027456
aF0.004504480864852667
aF0.004776291083544493
aF0.005427051801234484
aF0.005904053803533316
aF0.006484297104179859
aF0.006484297104179859
aF0.007116337306797504
aF0.00653933547437191
aF0.006087963469326496
aF0.005529678426682949
aF0.005442141555249691
aF0.005442140623927116
aF0.005955154076218605
aF0.00555482879281044
aF0.00555482879281044
aF0.0055548278614878654
aF0.004452873021364212
aF0.00395728787407279
aF0.0035362327471375465
aF0.0032189376652240753
aF0.0032189374323934317
aF0.0032189374323934317
aF0.003218937199562788
aF0.003099994035437703
aF0.0033257012255489826
aF0.003325700992718339
aF0.0029408535920083523
aF0.0021801027469336987
aF0.0021801027469336987
aF0.0025497323367744684
aF0.00221616355702281
aF0.001972343772649765
aF0.0023382282815873623
aF0.002338228514418006
aF0.0023806311655789614
aF0.0023531271144747734
aF0.002257626038044691
aF0.0021007577888667583
aF0.0017165988683700562
aF0.001319218659773469
aF0.0011124447919428349
aF0.0013587467838078737
aF0.0013587464345619082
aF0.0016607251018285751
aF0.00231978134252131
aF0.0026539829559624195
aF0.002954391296952963
aF0.002739162649959326
aF0.002739162649959326
aF0.002739162649959326
aF0.0025727013126015663
aF0.002326821908354759
aF0.0020185939501971006
aF0.001828738022595644
aF0.0016010538674890995
aF0.0016010537510737777
aF0.001601053518243134
aF0.0022871727123856544
aF0.0030745796393603086
aF0.003476329380646348
aF0.004667848348617554
aF0.004667848814278841
aF0.004915377590805292
aF0.005058761220425367
aF0.005058761686086655
aF0.004942442290484905
aF0.00471912557259202
aF0.005064469762146473
aF0.006042862311005592
aF0.006042863242328167
aF0.006665514782071114
aF0.006665514316409826
aF0.006125104613602161
aF0.005715323146432638
aF0.005996560212224722
aF0.00599655881524086
aF0.0060217599384486675
aF0.006021760404109955
aF0.00602175947278738
aF0.00602175947278738
aF0.005490214563906193
aF0.004938657395541668
aF0.003902627620846033
aF0.003036137204617262
aF0.003400335554033518
aF0.0034003350883722305
aF0.0034003346227109432
aF0.003502248553559184
aF0.0035137843806296587
aF0.0034341418650001287
aF0.003434141632169485
aF0.003434141166508198
aF0.003434141166508198
aF0.003434140933677554
aF0.0029941643588244915
aF0.003432353027164936
aF0.0038688667118549347
aF0.0038688667118549347
aF0.00418386934325099
aF0.003980266861617565
aF0.003915730398148298
aF0.003915730398148298
aF0.004466925282031298
aF0.004466925282031298
aF0.004466925747692585
aF0.00499846413731575
aF0.005562178790569305
aF0.005562178790569305
aF0.0060438551008701324
aF0.0060438551008701324
aF0.005806182511150837
aF0.005806182976812124
aF0.005806182511150837
aF0.005584129597991705
aF0.005584129132330418
aF0.005584129132330418
aF0.006133518647402525
aF0.006133518181741238
aF0.006755413021892309
aF0.006755412556231022
aF0.005797592457383871
aF0.0061435154639184475
aF0.007622443605214357
aF0.007130294106900692
aF0.007788981311023235
aF0.008595205843448639
aF0.013334457762539387
aF0.0550815612077713
aF0.12058370560407639
aF0.231832355260849
aF0.3868398666381836
aF0.5498762130737305
aF0.5262995958328247
aF0.4504491090774536
aF0.4689942002296448
aF0.5482520461082458
aF0.6991329789161682
aF0.8690481185913086
aF0.8836618065834045
aF0.8693740963935852
aF0.8311973810195923
aF0.8574315309524536
aF0.7929287552833557
aF0.7785050868988037
aF0.7829217910766602
aF0.806728720664978
aF0.8426573276519775
aF0.8367847204208374
aF0.8035454750061035
aF0.7554547786712646
aF0.7028982043266296
aF0.6565161943435669
aF0.5554441809654236
aF0.5032045841217041
aF0.49496567249298096
aF0.5159938335418701
aF0.4904363751411438
aF0.4227703809738159
aF0.3673379719257355
aF0.3091118335723877
aF0.25990739464759827
aF0.21086689829826355
aF0.1912226378917694
aF0.17022432386875153
aF0.1529017835855484
aF0.16061155498027802
aF0.1603458821773529
aF0.15673953294754028
aF0.1462588906288147
aF0.13643160462379456
aF0.1203388124704361
aF0.1079583466053009
aF0.10109708458185196
aF0.09156696498394012
aF0.08015676587820053
aF0.07604943960905075
aF0.07962861657142639
aF0.0796285942196846
aF0.0805879533290863
aF0.08058793842792511
aF0.08015373349189758
aF0.07804611325263977
aF0.07255537807941437
aF0.06419728696346283
aF0.058515094220638275
aF0.06188682094216347
aF0.06770984083414078
aF0.07607761770486832
aF0.08452928811311722
aF0.07706895470619202
aF0.0799834355711937
aF0.0799834206700325
aF0.07953792065382004
aF0.07953792065382004
aF0.08103565871715546
aF0.08234744518995285
aF0.08411581814289093
aF0.08411581069231033
aF0.08637643605470657
aF0.08637643605470657
aF0.09067900478839874
aF0.09449177980422974
aF0.09755007922649384
aF0.09858056902885437
aF0.09858057647943497
aF0.09858056902885437
aF0.09774893522262573
aF0.0963747575879097
aF0.0982266291975975
aF0.0938551276922226
aF0.093855120241642
aF0.09148366749286652
aF0.08709345012903214
aF0.09287579357624054
aF0.0993461012840271
aF0.10170639306306839
aF0.10364297777414322
aF0.10388705879449844
aF0.1028796136379242
aF0.1017952412366867
aF0.10343076288700104
aF0.10343074798583984
aF0.10106494277715683
aF0.10106494277715683
aF0.10106494277715683
aF0.09668092429637909
aF0.09489962458610535
aF0.09489961713552475
aF0.09713767468929291
aF0.09699016064405441
aF0.09449756890535355
aF0.09020786732435226
aF0.08889064192771912
aF0.08208931982517242
aF0.03640902414917946
aF0.01113712228834629
aF0.011839841492474079
aF0.05988015979528427
aF0.13927596807479858
aF0.12413301318883896
aF0.0892772227525711
aF0.121768057346344
aF0.1865072399377823
aF0.2962636947631836
aF0.40713340044021606
aF0.40713340044021606
aF0.39023956656455994
aF0.3835970461368561
aF0.41018956899642944
aF0.39207449555397034
aF0.39759764075279236
aF0.4120251536369324
aF0.4427284896373749
aF0.474403977394104
aF0.45389968156814575
aF0.4177972972393036
aF0.3750065565109253
aF0.3468559980392456
aF0.3345133662223816
aF0.3012180030345917
aF0.29971057176589966
aF0.32091182470321655
aF0.36854124069213867
aF0.33736690878868103
aF0.2611406743526459
aF0.20151850581169128
aF0.15286991000175476
aF0.11461672931909561
aF0.08797863870859146
aF0.08117850124835968
aF0.0826069787144661
aF0.09282238781452179
aF0.08040440082550049
aF0.0822422131896019
aF0.06627600640058517
aF0.042856864631175995
aF0.027057453989982605
aF0.015216974541544914
aF0.010724741034209728
aF0.010305836796760559
aF0.01205538958311081
aF0.0152890058234334
aF0.016169635578989983
aF0.015207832679152489
aF0.01334702130407095
aF0.010935353115200996
aF0.01029852032661438
aF0.00801991205662489
aF0.007986717857420444
aF0.010210392065346241
aF0.015252067707479
aF0.0213712677359581
aF0.02137126587331295
aF0.015363267622888088
aF0.011788311414420605
aF0.009000455029308796
aF0.009049832820892334
aF0.009580297395586967
aF0.009189549833536148
aF0.007731701713055372
aF0.0066674016416072845
aF0.006095461081713438
aF0.006713287439197302
aF0.008046528324484825
aF0.008046528324484825
aF0.006977197714149952
aF0.00628157751634717
aF0.005916948895901442
aF0.006302231922745705
aF0.00741067947819829
aF0.007410679943859577
aF0.006800471805036068
aF0.0061767734587192535
aF0.0068011959083378315
aF0.00805639661848545
aF0.0060128867626190186
aF0.005699996370822191
aF0.006300134584307671
aF0.006300135049968958
aF0.006400722544640303
aF0.006400722078979015
aF0.006632877513766289
aF0.005909980274736881
aF0.008543547242879868
aF0.009976503439247608
aF0.010771943256258965
aF0.012410310097038746
aF0.01241031102836132
aF0.014462778344750404
aF0.018312523141503334
aF0.019391091540455818
aF0.0200679749250412
aF0.020296186208724976
aF0.020162763074040413
aF0.020162763074040413
aF0.021540535613894463
aF0.023457065224647522
aF0.028223693370819092
aF0.02955074980854988
aF0.03223033994436264
aF0.03477993234992027
aF0.0297077689319849
aF0.031804509460926056
aF0.03268798440694809
aF0.032965246587991714
aF0.032617054879665375
aF0.033137597143650055
aF0.032291483134031296
aF0.032291479408741
aF0.03101842850446701
aF0.028359411284327507
aF0.024569988250732422
aF0.024569984525442123
aF0.021759046241641045
aF0.02548718824982643
aF0.029326660558581352
aF0.03021460585296154
aF0.03052690252661705
aF0.030241869390010834
aF0.031226567924022675
aF0.030403293669223785
aF0.02833133563399315
aF0.028331333771348
aF0.025800662115216255
aF0.025800658389925957
aF0.028221644461154938
aF0.031617507338523865
aF0.0345878079533577
aF0.03863803669810295
aF0.03812534362077713
aF0.03839324042201042
aF0.03839324042201042
aF0.03903406113386154
aF0.03903406113386154
aF0.035357654094696045
aF0.03268364444375038
aF0.02861647680401802
aF0.026055827736854553
aF0.02723294124007225
aF0.026225488632917404
aF0.026225490495562553
aF0.02578001655638218
aF0.026239734143018723
aF0.025946512818336487
aF0.025326460599899292
aF0.025326460599899292
aF0.02448933944106102
aF0.02448934130370617
aF0.025670930743217468
aF0.02322934754192829
aF0.022084638476371765
aF0.02418508380651474
aF0.02604234591126442
aF0.026042349636554718
aF0.02647310122847557
aF0.026607930660247803
aF0.02704043686389923
aF0.02704043500125408
aF0.02620670571923256
aF0.02418380416929722
aF0.02418380230665207
aF0.026662461459636688
aF0.0333360992372036
aF0.0402524396777153
aF0.045534491539001465
aF0.04341603443026543
aF0.04215041920542717
aF0.04215041548013687
aF0.04215041175484657
aF0.04348432272672653
aF0.04244166612625122
aF0.0437723770737648
aF0.04691673442721367
aF0.04862125217914581
aF0.04694852977991104
aF0.048473335802555084
aF0.05110698938369751
aF0.05110698938369751
aF0.05053483322262764
aF0.050447676330804825
aF0.050447672605514526
aF0.04886436089873314
aF0.05366746336221695
aF0.06014000624418259
aF0.05293586850166321
aF0.05474896728992462
aF0.044736310839653015
aF0.03815129026770592
aF0.03539248928427696
aF0.03349798172712326
aF0.03375709056854248
aF0.03375709056854248
aF0.03503163158893585
aF0.03312372416257858
aF0.03431287035346031
aF0.03033330850303173
aF0.02393227070569992
aF0.021611686795949936
aF0.021611686795949936
aF0.019931502640247345
aF0.019931500777602196
aF0.01962556689977646
aF0.019850172102451324
aF0.0211847722530365
aF0.019762568175792694
aF0.017253445461392403
aF0.012964511290192604
aF0.009018919430673122
aF0.011382317170500755
aF0.009827137924730778
aF0.009174804203212261
aF0.00867774523794651
aF0.00763182807713747
aF0.007646866142749786
aF0.007877061143517494
aF0.007485967129468918
aF0.006991657428443432
aF0.0069916569627821445
aF0.006369172129780054
aF0.005183677189052105
aF0.004661815706640482
aF0.003463371191173792
aF0.003214001888409257
aF0.003214001888409257
aF0.0032167506869882345
aF0.003365068230777979
aF0.003112010657787323
aF0.0034522395581007004
aF0.003886554855853319
aF0.0029816506430506706
aF0.002981650410220027
aF0.002600438427180052
aF0.0029277517460286617
aF0.0029277512803673744
aF0.002927750814706087
aF0.002860958455130458
aF0.0027092215605080128
aF0.0032946188002824783
aF0.004426163155585527
aF0.004928676877170801
aF0.006084066350013018
aF0.007340143900364637
aF0.006192706525325775
aF0.006192706059664488
aF0.006192706059664488
aF0.00603204732760787
aF0.006032047793269157
aF0.006032047793269157
aF0.0057296594604849815
aF0.0057296594604849815
aF0.005729659926146269
aF0.006314808502793312
aF0.006314808968454599
aF0.006314808037132025
aF0.00579576613381505
aF0.005407386925071478
aF0.005668671801686287
aF0.005668672267347574
aF0.0058751534670591354
aF0.006154614966362715
aF0.005744982976466417
aF0.005744983442127705
aF0.0051968577317893505
aF0.003647950477898121
aF0.0031993126031011343
aF0.0028189518488943577
aF0.0025332728400826454
aF0.0029672004748135805
aF0.002834013430401683
aF0.002839647466316819
aF0.003158309031277895
aF0.003792774397879839
aF0.0033854609355330467
aF0.0033854604698717594
aF0.0038554039783775806
aF0.0038554039783775806
aF0.0030772490426898003
aF0.0025733797810971737
aF0.0023787750396877527
aF0.002506944350898266
aF0.0027127007488161325
aF0.0021685403771698475
aF0.002168540610000491
aF0.0029212646186351776
aF0.0029212646186351776
aF0.0029212646186351776
aF0.002570272656157613
aF0.0023164027370512486
aF0.0023164027370512486
aF0.002272209385409951
aF0.002356547862291336
aF0.0020341151393949986
aF0.0018377448432147503
aF0.0014019613154232502
aF0.000983919482678175
aF0.0007830136455595493
aF0.0004253255610819906
aF0.0008056564838625491
aF0.0006021048175171018
aF0.00044509643339551985
aF0.0007358250441029668
aF0.0007358250441029668
aF0.0007358250441029668
aF0.0007902947836555541
aF0.0008771733264438808
aF0.0008771732682362199
aF0.0008744736551307142
aF0.0009038103744387627
aF0.000931714428588748
aF0.0009287152788601816
aF0.0009287151042371988
aF0.001208432368002832
aF0.0026887564454227686
aF0.004029709380120039
aF0.004535517655313015
aF0.005564025603234768
aF0.006051024422049522
aF0.006051024422049522
aF0.006327383685857058
aF0.006664709188044071
aF0.006713965907692909
aF0.006713966839015484
aF0.007306026294827461
aF0.0077887000516057014
aF0.0077887000516057014
aF0.008474565111100674
aF0.009973308071494102
aF0.009242985397577286
aF0.009888293221592903
aF0.009888293221592903
aF0.00953945517539978
aF0.00969741865992546
aF0.00969741865992546
aF0.00994114764034748
aF0.009514483623206615
aF0.008965035900473595
aF0.009629654698073864
aF0.009629654698073864
aF0.010410882532596588
aF0.010410882532596588
aF0.010410881601274014
aF0.010410882532596588
aF0.01078580692410469
aF0.010991859249770641
aF0.011068151332437992
aF0.010721703991293907
aF0.010501079261302948
aF0.010501081123948097
aF0.010501079261302948
aF0.012724802829325199
aF0.013603480532765388
aa.